; Function Attrs: nounwind uwtable
define ptr @glfwGetJoystickButtons(i32 noundef %0, ptr noundef writeonly captures(none) initializes((0, 4)) %1) local_unnamed_addr #0 {
  store i32 0, ptr %1, align 4, !tbaa !169
  %3 = load i32, ptr @_glfw, align 8, !tbaa !170
  %.not = icmp eq i32 %3, 0
  br i1 %.not, label %4, label %5

4:                                                ; preds = %2
  tail call void (i32, ptr, ...) @_glfwInputError(i32 noundef 65537, ptr noundef null) #12
  br label %33

5:                                                ; preds = %2
  %or.cond = icmp ugt i32 %0, 15
  br i1 %or.cond, label %6, label %7

6:                                                ; preds = %5
  tail call void (i32, ptr, ...) @_glfwInputError(i32 noundef 65539, ptr noundef nonnull @.str.403, i32 noundef %0) #12
  br label %33

7:                                                ; preds = %5
  %8 = load i32, ptr getelementptr inbounds nuw (i8, ptr @_glfw, i64 1932), align 4, !tbaa !197
  %.not.i = icmp eq i32 %8, 0
  br i1 %.not.i, label %9, label %13

9:                                                ; preds = %7
  %10 = load ptr, ptr getelementptr inbounds nuw (i8, ptr @_glfw, i64 168), align 8, !tbaa !198
  %11 = tail call i32 %10() #12
  %.not1.i = icmp eq i32 %11, 0
  br i1 %.not1.i, label %initJoysticks.exit.thread, label %13

initJoysticks.exit.thread:                        ; preds = %9
  %12 = load ptr, ptr getelementptr inbounds nuw (i8, ptr @_glfw, i64 176), align 8, !tbaa !199
  tail call void %12() #12
  br label %33

13:                                               ; preds = %9, %7
  store i32 1, ptr getelementptr inbounds nuw (i8, ptr @_glfw, i64 1932), align 4, !tbaa !197
  %14 = zext nneg i32 %0 to i64
  %15 = getelementptr inbounds nuw %struct._GLFWjoystick, ptr getelementptr inbounds nuw (i8, ptr @_glfw, i64 1936), i64 %14
  %16 = getelementptr inbounds nuw i8, ptr %15, i64 4
  %17 = load i32, ptr %16, align 4, !tbaa !63
  %.not16 = icmp eq i32 %17, 0
  br i1 %.not16, label %33, label %18

18:                                               ; preds = %13
  %19 = load ptr, ptr getelementptr inbounds nuw (i8, ptr @_glfw, i64 184), align 8, !tbaa !200
  %20 = tail call i32 %19(ptr noundef nonnull %15, i32 noundef 2) #12
  %.not17 = icmp eq i32 %20, 0
  br i1 %.not17, label %33, label %21

21:                                               ; preds = %18
  %22 = load i32, ptr getelementptr inbounds nuw (i8, ptr @_glfw, i64 616), align 8, !tbaa !201
  %.not18 = icmp eq i32 %22, 0
  %23 = getelementptr inbounds nuw i8, ptr %15, i64 32
  %24 = load i32, ptr %23, align 8, !tbaa !147
  br i1 %.not18, label %30, label %25

25:                                               ; preds = %21
  %26 = getelementptr inbounds nuw i8, ptr %15, i64 48
  %27 = load i32, ptr %26, align 8, !tbaa !165
  %28 = shl nsw i32 %27, 2
  %29 = add nsw i32 %28, %24
  br label %30

30:                                               ; preds = %21, %25
  %storemerge = phi i32 [ %29, %25 ], [ %24, %21 ]
  store i32 %storemerge, ptr %1, align 4, !tbaa !169
  %31 = getelementptr inbounds nuw i8, ptr %15, i64 24
  %32 = load ptr, ptr %31, align 8, !tbaa !146
  br label %33

33:                                               ; preds = %initJoysticks.exit.thread, %18, %13, %30, %6, %4
  %.0 = phi ptr [ null, %6 ], [ %32, %30 ], [ null, %4 ], [ null, %13 ], [ null, %18 ], [ null, %initJoysticks.exit.thread ]
  ret ptr %.0
}